; Function Attrs: nounwind uwtable
define dso_local void @ustr_cat(ptr noundef %0, ptr noundef readonly %1, ptr noundef captures(none) %2) local_unnamed_addr #1 {
  %4 = getelementptr inbounds nuw i8, ptr %1, i64 8
  %5 = load i32, ptr %4, align 8, !tbaa !12
  %6 = load i32, ptr %2, align 4, !tbaa !4
  %7 = icmp sgt i32 %6, 0
  %8 = icmp eq ptr %0, %1
  %or.cond.i = or i1 %8, %7
  br i1 %or.cond.i, label %ustr_ncat.exit, label %9

9:                                                ; preds = %3
  %10 = getelementptr inbounds nuw i8, ptr %0, i64 12
  %11 = load i32, ptr %10, align 4, !tbaa !13
  %12 = getelementptr inbounds nuw i8, ptr %0, i64 8
  %13 = load i32, ptr %12, align 8, !tbaa !12
  %14 = add nsw i32 %13, %5
  %15 = icmp slt i32 %11, %14
  %.pre.i = load ptr, ptr %0, align 8, !tbaa !8
  br i1 %15, label %16, label %31

16:                                               ; preds = %9
  %17 = icmp slt i32 %14, 128
  %18 = shl nsw i32 %13, 1
  %19 = add nsw i32 %18, %5
  %20 = and i32 %19, -128
  %21 = add nsw i32 %20, 128
  %22 = select i1 %17, i32 128, i32 %21
  %23 = or disjoint i32 %22, 1
  %24 = sext i32 %23 to i64
  %25 = shl nsw i64 %24, 1
  %26 = tail call ptr @uprv_realloc_77(ptr noundef %.pre.i, i64 noundef %25) #9
  store ptr %26, ptr %0, align 8, !tbaa !8
  %27 = icmp eq ptr %26, null
  br i1 %27, label %28, label %ustr_resize.exit.i

28:                                               ; preds = %16
  store i32 7, ptr %2, align 4, !tbaa !4
  store i32 0, ptr %12, align 8, !tbaa !12
  br label %ustr_resize.exit.i

ustr_resize.exit.i:                               ; preds = %28, %16
  %.sink.i = phi i32 [ 0, %28 ], [ %22, %16 ]
  store i32 %.sink.i, ptr %10, align 4, !tbaa !13
  %29 = load i32, ptr %2, align 4, !tbaa !4
  %30 = icmp sgt i32 %29, 0
  br i1 %30, label %ustr_ncat.exit, label %ustr_resize.exit._crit_edge.i

ustr_resize.exit._crit_edge.i:                    ; preds = %ustr_resize.exit.i
  %.pre22.i = load i32, ptr %12, align 8, !tbaa !12
  br label %31

31:                                               ; preds = %ustr_resize.exit._crit_edge.i, %9
  %32 = phi i32 [ %13, %9 ], [ %.pre22.i, %ustr_resize.exit._crit_edge.i ]
  %33 = phi ptr [ %.pre.i, %9 ], [ %26, %ustr_resize.exit._crit_edge.i ]
  %34 = sext i32 %32 to i64
  %35 = getelementptr inbounds i16, ptr %33, i64 %34
  %36 = load ptr, ptr %1, align 8, !tbaa !8
  %37 = sext i32 %5 to i64
  %38 = shl nsw i64 %37, 1
  tail call void @llvm.memcpy.p0.p0.i64(ptr align 2 %35, ptr align 2 %36, i64 %38, i1 false)
  %39 = load i32, ptr %4, align 8, !tbaa !12
  %40 = load i32, ptr %12, align 8, !tbaa !12
  %41 = add nsw i32 %40, %39
  store i32 %41, ptr %12, align 8, !tbaa !12
  %42 = load ptr, ptr %0, align 8, !tbaa !8
  %43 = sext i32 %41 to i64
  %44 = getelementptr inbounds i16, ptr %42, i64 %43
  store i16 0, ptr %44, align 2, !tbaa !14
  br label %ustr_ncat.exit

ustr_ncat.exit:                                   ; preds = %3, %ustr_resize.exit.i, %31
  ret void
}